; Function Attrs: mustprogress nofree nounwind willreturn memory(write, argmem: readwrite) uwtable
define noundef double @_ZNK8QuantLib20FordeHestonExpansion17impliedVolatilityEdd(ptr nocapture noundef nonnull readonly align 8 dereferenceable(48) %this, double noundef %strike, double noundef %forward) unnamed_addr #11 align 2 {
entry:
  %div = fdiv double %strike, %forward
  %call = tail call double @log(double noundef %div) #29, !tbaa !112
  %coeffs = getelementptr inbounds nuw i8, ptr %this, i64 8
  %0 = load double, ptr %coeffs, align 8, !tbaa !114
  %arrayidx3 = getelementptr inbounds i8, ptr %this, i64 16
  %1 = load double, ptr %arrayidx3, align 8, !tbaa !114
  %arrayidx5 = getelementptr inbounds i8, ptr %this, i64 24
  %2 = load double, ptr %arrayidx5, align 8, !tbaa !114
  %arrayidx7 = getelementptr inbounds i8, ptr %this, i64 32
  %3 = load double, ptr %arrayidx7, align 8, !tbaa !114
  %arrayidx9 = getelementptr inbounds i8, ptr %this, i64 40
  %4 = load double, ptr %arrayidx9, align 8, !tbaa !114
  %5 = tail call double @llvm.fmuladd.f64(double %call, double %4, double %3)
  %6 = tail call double @llvm.fmuladd.f64(double %call, double %5, double %2)
  %7 = tail call double @llvm.fmuladd.f64(double %call, double %6, double %1)
  %8 = tail call double @llvm.fmuladd.f64(double %call, double %7, double %0)
  %cmp.i = fcmp ogt double %8, 1.000000e-08
  %.sroa.speculated = select i1 %cmp.i, double %8, double 1.000000e-08
  %sqrt = tail call double @llvm.sqrt.f64(double %.sroa.speculated)
  ret double %sqrt
}